	.file	"poly.c"
	.text
	.section	.rodata
.LC0:
	.string	"foo"
	.text
	.globl	foo
	.type	foo, @function
foo:
.LFB0:
	.cfi_startproc
	pushl	%ebp
	.cfi_def_cfa_offset 8
	.cfi_offset 5, -8
	movl	%esp, %ebp
	.cfi_def_cfa_register 5
	pushl	%ebx
	subl	$4, %esp
	.cfi_offset 3, -12
	call	__x86.get_pc_thunk.ax
	addl	$_GLOBAL_OFFSET_TABLE_, %eax
	subl	$12, %esp
	leal	.LC0@GOTOFF(%eax), %edx
	pushl	%edx
	movl	%eax, %ebx
	call	puts@PLT
	addl	$16, %esp
	nop
	movl	-4(%ebp), %ebx
	leave
	.cfi_restore 5
	.cfi_restore 3
	.cfi_def_cfa 4, 4
	ret
	.cfi_endproc
.LFE0:
	.size	foo, .-foo
	.section	.rodata
.LC1:
	.string	"bar"
	.text
	.globl	bar
	.type	bar, @function
bar:
.LFB1:
	.cfi_startproc
	pushl	%ebp
	.cfi_def_cfa_offset 8
	.cfi_offset 5, -8
	movl	%esp, %ebp
	.cfi_def_cfa_register 5
	pushl	%ebx
	subl	$4, %esp
	.cfi_offset 3, -12
	call	__x86.get_pc_thunk.ax
	addl	$_GLOBAL_OFFSET_TABLE_, %eax
	subl	$12, %esp
	leal	.LC1@GOTOFF(%eax), %edx
	pushl	%edx
	movl	%eax, %ebx
	call	puts@PLT
	addl	$16, %esp
	nop
	movl	-4(%ebp), %ebx
	leave
	.cfi_restore 5
	.cfi_restore 3
	.cfi_def_cfa 4, 4
	ret
	.cfi_endproc
.LFE1:
	.size	bar, .-bar
	.globl	call
	.type	call, @function
call:
.LFB2:
	.cfi_startproc
	pushl	%ebp
	.cfi_def_cfa_offset 8
	.cfi_offset 5, -8
	movl	%esp, %ebp
	.cfi_def_cfa_register 5
	subl	$8, %esp
	call	__x86.get_pc_thunk.ax
	addl	$_GLOBAL_OFFSET_TABLE_, %eax
	movl	8(%ebp), %eax
	movl	(%eax), %eax
	call	*%eax
	nop
	leave
	.cfi_restore 5
	.cfi_def_cfa 4, 4
	ret
	.cfi_endproc
.LFE2:
	.size	call, .-call
	.globl	main
	.type	main, @function
main:
.LFB3:
	.cfi_startproc
	pushl	%ebp
	.cfi_def_cfa_offset 8
	.cfi_offset 5, -8
	movl	%esp, %ebp
	.cfi_def_cfa_register 5
	subl	$16, %esp
	call	__x86.get_pc_thunk.ax
	addl	$_GLOBAL_OFFSET_TABLE_, %eax
	leal	foo@GOTOFF(%eax), %edx
	movl	%edx, -8(%ebp)
	leal	bar@GOTOFF(%eax), %eax
	movl	%eax, -4(%ebp)
	movl	$0, %eax
	leave
	.cfi_restore 5
	.cfi_def_cfa 4, 4
	ret
	.cfi_endproc
.LFE3:
	.size	main, .-main
	.section	.text.__x86.get_pc_thunk.ax,"axG",@progbits,__x86.get_pc_thunk.ax,comdat
	.globl	__x86.get_pc_thunk.ax
	.hidden	__x86.get_pc_thunk.ax
	.type	__x86.get_pc_thunk.ax, @function
__x86.get_pc_thunk.ax:
.LFB4:
	.cfi_startproc
	movl	(%esp), %eax
	ret
	.cfi_endproc
.LFE4:
	.ident	"GCC: (Ubuntu 11.3.0-1ubuntu1~22.04) 11.3.0"
	.section	.note.GNU-stack,"",@progbits
